(dp0
S'inputTypes'
p1
(lp2
c__builtin__
float
p3
acDescription
CellTypes
p4
acDescription
CellStates
p5
ag5
acDescription
CellPositions
p6
acDescription
CellVectors
p7
acDescription
Mesh
p8
asS'operators'
p9
(lp10
(lp11
cnumpy.core
_ufunc_reconstruct
p12
(S'numpy.core.umath'
p13
S'multiply'
p14
tp15
Rp16
a(g3
g3
tp17
ag3
aa(lp18
g16
a(cDescription
Vector
p19
g19
tp20
ag19
aa(lp21
g12
(g13
S'add'
p22
tp23
Rp24
a(g3
g3
tp25
ag3
aa(lp26
g12
(g13
S'subtract'
p27
tp28
Rp29
a(lp30
g3
ag3
aag3
aa(lp31
cPrimitives
safeDiv
p32
a(lp33
g3
ag3
aag3
aa(lp34
g12
(g13
S'negative'
p35
tp36
Rp37
a(lp38
g3
aag3
aa(lp39
g12
(g13
S'sqrt'
p40
tp41
Rp42
a(lp43
g3
aag3
aa(lp44
cPrimitives
safePower
p45
a(lp46
g3
ag3
aag3
aa(lp47
g12
(g13
S'exp'
p48
tp49
Rp50
a(lp51
g3
aag3
aa(lp52
g12
(g13
S'log'
p53
tp54
Rp55
a(lp56
g3
aag3
aa(lp57
g12
(g13
S'absolute'
p58
tp59
Rp60
a(lp61
g3
aag3
aa(lp62
g12
(g13
S'greater'
p63
tp64
Rp65
a(lp66
g3
ag3
aac__builtin__
bool
p67
aa(lp68
g12
(g13
S'less'
p69
tp70
Rp71
a(lp72
g3
ag3
aag67
aa(lp73
cnumpy.linalg.linalg
norm
p74
a(lp75
g19
aag3
aa(lp76
cnumpy.core.numeric
cross
p77
a(lp78
g19
ag19
aag19
aasS'terminals'
p79
(lp80
(lp81
I01
ag67
aa(lp82
I00
ag67
aasS'ephemerals'
p83
(lp84
(lp85
S'rand10'
p86
acPrimitives
float10
p87
ag3
aa(lp88
S'int10'
p89
acPrimitives
int10
p90
ac__builtin__
int
p91
aa(lp92
S'cellType'
p93
acDescription
CellType
p94
ag94
aasS'specificOperators'
p95
(lp96
(lp97
cnumpy.core._dotblas
dot
p98
a(lp99
g19
ag19
aag3
aa(lp100
g98
a(lp101
g19
acDescription
Position
p102
aag3
aa(lp103
cPrimitives
vectorX
p104
a(lp105
g19
aag3
aa(lp106
cPrimitives
vectorY
p107
a(lp108
g19
aag3
aa(lp109
cPrimitives
vectorZ
p110
a(lp111
g19
aag3
aa(lp112
g104
a(lp113
g102
aag3
aa(lp114
g107
a(lp115
g102
aag3
aa(lp116
g110
a(lp117
g102
aag3
aa(lp118
cPrimitives
lVectorX
p119
a(lp120
g7
aag5
aa(lp121
cPrimitives
lVectorY
p122
a(lp123
g7
aag5
aa(lp124
cPrimitives
lVectorZ
p125
a(lp126
g7
aag5
aa(lp127
g119
a(lp128
g6
aag5
aa(lp129
g122
a(lp130
g6
aag5
aa(lp131
g125
a(lp132
g6
aag5
aa(lp133
cnumpy.core.fromnumeric
sum
p134
a(lp135
g5
aag3
aa(lp136
cPrimitives
sumVector
p137
a(lp138
g7
aag19
aa(lp139
g137
a(lp140
g6
aag102
aa(lp141
cPrimitives
if_then_else
p142
a(lp143
g67
ag3
ag3
aag3
aa(lp144
cDescription
NumberField
p145
a(lp146
g6
ag5
ag8
aag145
aa(lp147
g145
a(lp148
g6
ag5
ag8
ag4
ag94
aag145
aa(lp149
cDescription
Density
p150
a(lp151
g6
ag8
aag150
aa(lp152
g150
a(lp153
g6
ag8
ag4
ag94
aag150
aa(lp154
cPrimitives
densityMultiply
p155
a(lp156
g150
ag150
aag150
aa(lp157
g155
a(lp158
g145
ag145
aag145
aa(lp159
g155
a(lp160
g150
ag145
aag150
aa(lp161
g155
a(lp162
g145
ag150
aag145
aa(lp163
cDescription
Contours
p164
a(lp165
g145
ag3
ag8
aag164
aa(lp166
g164
a(lp167
g150
ag3
ag8
aag164
aa(lp168
cPrimitives
largestContour
p169
a(lp170
g164
aacDescription
Contour
p171
aa(lp172
cPrimitives
sumPerimeters
p173
a(lp174
g164
aag3
aa(lp175
cPrimitives
perimeter
p176
a(lp177
g171
aag3
aa(lp178
cPrimitives
area
p179
a(lp180
g171
aag3
aa(lp181
cPrimitives
convexHull
p182
a(lp183
g171
aag171
aa(lp184
cPrimitives
centroidX
p185
a(lp186
g171
aag3
aa(lp187
cPrimitives
centroidY
p188
a(lp189
g171
aag3
aa(lp190
cPrimitives
solidity
p191
a(lp192
g171
aag3
aa(lp193
cPrimitives
nematicOrder
p194
a(lp195
g6
ag7
ag8
aag171
aa(lp196
g194
a(lp197
g6
ag7
ag8
ag4
ag94
aag171
aa(lp198
cPrimitives
adfContour
p199
a(lp200
g6
ag8
aag171
aa(lp201
g199
a(lp202
g6
ag8
ag4
ag94
aag171
aasS'types'
p203
(dp204
S'field'
p205
(lp206
g145
ag150
asS'contours'
p207
(lp208
g164
asg91
(lp209
g4
asg19
(lp210
g19
ag102
ag6
ag7
asS'list'
p211
(lp212
cDescription
ListBools
p213
ag5
ag6
ag7
asg67
(lp214
g67
ag213
asS'listVector'
p215
(lp216
g6
ag7
asg3
(lp217
g3
ag5
ag145
ag150
asS'contour'
p218
(lp219
g171
ass.