(dp0
S'inputTypes'
p1
(lp2
c__builtin__
float
p3
acDescription
CellTypes
p4
acDescription
CellStates
p5
ag5
acDescription
CellPositions
p6
acDescription
CellVectors
p7
acDescription
Mesh
p8
asS'operators'
p9
(lp10
(lp11
cnumpy.core
_ufunc_reconstruct
p12
(S'numpy.core.umath'
p13
S'multiply'
p14
tp15
Rp16
a(g3
g3
tp17
ag3
aa(lp18
g16
a(cDescription
Vector
p19
g19
tp20
ag19
aa(lp21
g12
(g13
S'add'
p22
tp23
Rp24
a(g3
g3
tp25
ag3
aa(lp26
g12
(g13
S'subtract'
p27
tp28
Rp29
a(lp30
g3
ag3
aag3
aa(lp31
cPrimitives
safeDiv
p32
a(lp33
g3
ag3
aag3
aa(lp34
g12
(g13
S'negative'
p35
tp36
Rp37
a(lp38
g3
aag3
aa(lp39
g12
(g13
S'sqrt'
p40
tp41
Rp42
a(lp43
g3
aag3
aa(lp44
cPrimitives
safePower
p45
a(lp46
g3
ag3
aag3
aa(lp47
g12
(g13
S'exp'
p48
tp49
Rp50
a(lp51
g3
aag3
aa(lp52
g12
(g13
S'log'
p53
tp54
Rp55
a(lp56
g3
aag3
aa(lp57
g12
(g13
S'absolute'
p58
tp59
Rp60
a(lp61
g3
aag3
aa(lp62
g12
(g13
S'greater'
p63
tp64
Rp65
a(lp66
g3
ag3
aac__builtin__
bool
p67
aa(lp68
g12
(g13
S'less'
p69
tp70
Rp71
a(lp72
g3
ag3
aag67
aa(lp73
cnumpy.linalg.linalg
norm
p74
a(lp75
g19
aag3
aa(lp76
cnumpy.core.numeric
cross
p77
a(lp78
g19
ag19
aag19
aasS'terminals'
p79
(lp80
(lp81
I01
ag67
aa(lp82
I00
ag67
aasS'ephemerals'
p83
(lp84
(lp85
S'rand10'
p86
acPrimitives
float10
p87
ag3
aa(lp88
S'int10'
p89
acPrimitives
int10
p90
ac__builtin__
int
p91
aa(lp92
S'cellType'
p93
acDescription
CellType
p94
ag94
aasS'specificOperators'
p95
(lp96
(lp97
cnumpy.core._dotblas
dot
p98
a(lp99
g19
ag19
aag3
aa(lp100
g98
a(lp101
g19
acDescription
Position
p102
aag3
aa(lp103
g98
a(lp104
g7
ag102
aag5
aa(lp105
g98
a(lp106
g19
ag6
aag5
aa(lp107
g98
a(lp108
g7
ag6
aag5
aa(lp109
cPrimitives
vectorX
p110
a(lp111
g19
aag3
aa(lp112
cPrimitives
vectorY
p113
a(lp114
g19
aag3
aa(lp115
cPrimitives
vectorZ
p116
a(lp117
g19
aag3
aa(lp118
g110
a(lp119
g102
aag3
aa(lp120
g113
a(lp121
g102
aag3
aa(lp122
g116
a(lp123
g102
aag3
aa(lp124
cPrimitives
lVectorX
p125
a(lp126
g7
aag5
aa(lp127
cPrimitives
lVectorY
p128
a(lp129
g7
aag5
aa(lp130
cPrimitives
lVectorZ
p131
a(lp132
g7
aag5
aa(lp133
g125
a(lp134
g6
aag5
aa(lp135
g128
a(lp136
g6
aag5
aa(lp137
g131
a(lp138
g6
aag5
aa(lp139
cnumpy.core.fromnumeric
sum
p140
a(lp141
g5
aag3
aa(lp142
cPrimitives
sumVector
p143
a(lp144
g7
aag19
aa(lp145
g143
a(lp146
g6
aag102
aa(lp147
cPrimitives
if_then_else
p148
a(lp149
g67
ag3
ag3
aag3
aa(lp150
cDescription
NumberField
p151
a(lp152
g6
ag5
ag8
aag151
aa(lp153
g151
a(lp154
g6
ag5
ag8
ag4
ag94
aag151
aa(lp155
cDescription
Density
p156
a(lp157
g6
ag8
aag156
aa(lp158
g156
a(lp159
g6
ag8
ag4
ag94
aag156
aa(lp160
cDescription
densityMultiply
p161
a(lp162
g156
ag156
aag156
aa(lp163
g161
a(lp164
g151
ag151
aag151
aa(lp165
g161
a(lp166
g156
ag151
aag156
aa(lp167
g161
a(lp168
g151
ag156
aag151
aa(lp169
cDescription
Contours
p170
a(lp171
g151
ag3
ag8
aag170
aa(lp172
g170
a(lp173
g156
ag3
ag8
aag170
aa(lp174
cPrimitives
largestContour
p175
a(lp176
g170
aacDescription
Contour
p177
aa(lp178
cPrimitives
sumPerimeters
p179
a(lp180
g170
aag3
aa(lp181
cPrimitives
perimeter
p182
a(lp183
g177
aag3
aa(lp184
cPrimitives
area
p185
a(lp186
g177
aag3
aa(lp187
cPrimitives
convexHull
p188
a(lp189
g177
aag177
aasS'types'
p190
(dp191
g19
(lp192
g19
ag102
ag6
ag7
asg3
(lp193
g3
ag5
ag151
ag156
asS'contours'
p194
(lp195
g170
asS'listVector'
p196
(lp197
g6
ag7
asS'field'
p198
(lp199
g151
ag156
asg67
(lp200
g67
acDescription
ListBools
p201
asS'list'
p202
(lp203
g201
ag5
ag6
ag7
asS'contour'
p204
(lp205
g177
asg91
(lp206
g4
ass.