(dp0
S'inputTypes'
p1
(lp2
c__builtin__
float
p3
acDescription
CellTypes
p4
acDescription
CellStates
p5
ag5
acDescription
CellPositions
p6
acDescription
CellVectors
p7
acDescription
Mesh
p8
asS'inputNames'
p9
(lp10
S'number'
p11
aS'types'
p12
aS'radii'
p13
aS'lengths'
p14
aS'positions'
p15
aS'directions'
p16
aS'mesh'
p17
asS'operators'
p18
(lp19
(lp20
cnumpy.core
_ufunc_reconstruct
p21
(S'numpy.core.umath'
p22
S'multiply'
p23
tp24
Rp25
a(g3
g3
tp26
ag3
aa(lp27
g25
a(cDescription
Vector
p28
g28
tp29
ag28
aa(lp30
g21
(g22
S'add'
p31
tp32
Rp33
a(g3
g3
tp34
ag3
aa(lp35
g21
(g22
S'subtract'
p36
tp37
Rp38
a(lp39
g3
ag3
aag3
aa(lp40
cPrimitives
safeDiv
p41
a(lp42
g3
ag3
aag3
aa(lp43
g21
(g22
S'negative'
p44
tp45
Rp46
a(lp47
g3
aag3
aa(lp48
g21
(g22
S'sqrt'
p49
tp50
Rp51
a(lp52
g3
aag3
aa(lp53
cPrimitives
safePower
p54
a(lp55
g3
ag3
aag3
aa(lp56
g21
(g22
S'exp'
p57
tp58
Rp59
a(lp60
g3
aag3
aa(lp61
g21
(g22
S'log'
p62
tp63
Rp64
a(lp65
g3
aag3
aa(lp66
g21
(g22
S'absolute'
p67
tp68
Rp69
a(lp70
g3
aag3
aa(lp71
g21
(g22
S'greater'
p72
tp73
Rp74
a(lp75
g3
ag3
aac__builtin__
bool
p76
aa(lp77
g21
(g22
S'less'
p78
tp79
Rp80
a(lp81
g3
ag3
aag76
aa(lp82
cnumpy.linalg.linalg
norm
p83
a(lp84
g28
aag3
aa(lp85
cnumpy.core.numeric
cross
p86
a(lp87
g28
ag28
aag28
aasS'terminals'
p88
(lp89
(lp90
I01
ag76
aa(lp91
I00
ag76
aa(lp92
ccopy_reg
_reconstructor
p93
(cDescription
CellType
p94
c__builtin__
int
p95
I0
tp96
Rp97
ag94
aS'CellType0'
p98
aa(lp99
g93
(g94
g95
I1
tp100
Rp101
ag94
aS'CellType1'
p102
aasS'ephemerals'
p103
(lp104
(lp105
S'rand10'
p106
acPrimitives
float10
p107
ag3
aa(lp108
S'int10'
p109
acPrimitives
int10
p110
ag95
aasS'specificOperators'
p111
(lp112
(lp113
cnumpy.core.multiarray
dot
p114
a(lp115
g28
ag28
aag3
aa(lp116
g114
a(lp117
g28
acDescription
Position
p118
aag3
aa(lp119
cPrimitives
vectorX
p120
a(lp121
g28
aag3
aa(lp122
cPrimitives
vectorY
p123
a(lp124
g28
aag3
aa(lp125
cPrimitives
vectorZ
p126
a(lp127
g28
aag3
aa(lp128
g120
a(lp129
g118
aag3
aa(lp130
g123
a(lp131
g118
aag3
aa(lp132
g126
a(lp133
g118
aag3
aa(lp134
cPrimitives
lVectorX
p135
a(lp136
g7
aag5
aa(lp137
cPrimitives
lVectorY
p138
a(lp139
g7
aag5
aa(lp140
cPrimitives
lVectorZ
p141
a(lp142
g7
aag5
aa(lp143
g135
a(lp144
g6
aag5
aa(lp145
g138
a(lp146
g6
aag5
aa(lp147
g141
a(lp148
g6
aag5
aa(lp149
cnumpy.core.fromnumeric
sum
p150
a(lp151
g5
aag3
aa(lp152
cPrimitives
sumVector
p153
a(lp154
g7
aag28
aa(lp155
g153
a(lp156
g6
aag118
aa(lp157
cPrimitives
if_then_else
p158
a(lp159
g76
ag3
ag3
aag3
aa(lp160
cDescription
NumberField
p161
a(lp162
g6
ag5
ag8
aag161
aa(lp163
g161
a(lp164
g6
ag5
ag8
ag4
ag94
aag161
aa(lp165
cDescription
Density
p166
a(lp167
g6
ag8
aag166
aa(lp168
g166
a(lp169
g6
ag8
ag4
ag94
aag166
aa(lp170
cPrimitives
densityMultiply
p171
a(lp172
g166
ag166
aag166
aa(lp173
g171
a(lp174
g161
ag161
aag161
aa(lp175
g171
a(lp176
g166
ag161
aag166
aa(lp177
g171
a(lp178
g161
ag166
aag161
aa(lp179
cDescription
Contours
p180
a(lp181
g161
ag3
ag8
aag180
aa(lp182
g180
a(lp183
g166
ag3
ag8
aag180
aa(lp184
cPrimitives
largestContour
p185
a(lp186
g180
aacDescription
Contour
p187
aa(lp188
cPrimitives
sumPerimeters
p189
a(lp190
g180
aag3
aa(lp191
cPrimitives
sumAreas
p192
a(lp193
g180
aag3
aa(lp194
cPrimitives
avgSolidity
p195
a(lp196
g180
aag3
aa(lp197
cPrimitives
perimeter
p198
a(lp199
g187
aag3
aa(lp200
cPrimitives
area
p201
a(lp202
g187
aag3
aa(lp203
cPrimitives
convexHull
p204
a(lp205
g187
aag187
aa(lp206
cPrimitives
centroidX
p207
a(lp208
g187
aag3
aa(lp209
cPrimitives
centroidY
p210
a(lp211
g187
aag3
aa(lp212
cPrimitives
solidity
p213
a(lp214
g187
aag3
aa(lp215
cPrimitives
orientation
p216
a(lp217
g187
aag3
aa(lp218
cPrimitives
majorAxis
p219
a(lp220
g187
aag3
aa(lp221
cPrimitives
minorAxis
p222
a(lp223
g187
aag3
aa(lp224
cPrimitives
nematicOrder
p225
a(lp226
g6
ag7
ag8
aag161
aa(lp227
g225
a(lp228
g6
ag7
ag8
ag4
ag94
aag161
aa(lp229
cPrimitives
adfContour
p230
a(lp231
g6
ag8
aag187
aa(lp232
g230
a(lp233
g6
ag8
ag4
ag94
aag187
aasg12
(dp234
S'field'
p235
(lp236
g161
ag166
asg3
(lp237
g3
ag5
ag161
ag166
asS'listVector'
p238
(lp239
g6
ag7
asS'list'
p240
(lp241
cDescription
ListBools
p242
ag5
ag6
ag7
asg95
(lp243
g4
asg28
(lp244
g28
ag118
ag6
ag7
asS'contour'
p245
(lp246
g187
asg76
(lp247
g76
ag242
asS'contours'
p248
(lp249
g180
ass.